target datalayout = "e-m:e-p270:32:32-p271:32:32-p272:64:64-i64:64-i128:128-f80:128-n8:16:32:64-S128"
target triple = "x86_64-pc-linux-gnu"

%"class.LIEF::DEX::Type" = type { %"class.LIEF::Object", i32, %union.anon.39 }
%"class.LIEF::Object" = type { ptr }
%union.anon.39 = type { ptr }

@_ZTVN4LIEF3DEX4TypeE = unnamed_addr constant { [7 x ptr] } { [7 x ptr] [ptr null, ptr @_ZTIN4LIEF3DEX4TypeE, ptr @_ZNK4LIEF6ObjecteqERKS0_, ptr @_ZNK4LIEF6ObjectneERKS0_, ptr @_ZN4LIEF3DEX4TypeD1Ev, ptr @_ZN4LIEF3DEX4TypeD0Ev, ptr @_ZNK4LIEF3DEX4Type6acceptERNS_7VisitorE] }, align 8

; Function Attrs: mustprogress uwtable
define void @_ZN4LIEF3DEX4TypeC2Ev(ptr noundef nonnull align 8 dereferenceable(24) %0) unnamed_addr #3 align 2 {
  %2 = alloca ptr, align 8
  store ptr %0, ptr %2, align 8
  %3 = load ptr, ptr %2, align 8
  call void @_ZN4LIEF6ObjectC2Ev(ptr noundef nonnull align 8 dereferenceable(8) %3)
  store ptr getelementptr inbounds ({ [7 x ptr] }, ptr @_ZTVN4LIEF3DEX4TypeE, i32 0, i32 0, i32 2), ptr %3, align 8
  %4 = getelementptr inbounds %"class.LIEF::DEX::Type", ptr %3, i32 0, i32 1
  store i32 0, ptr %4, align 8
  %5 = getelementptr inbounds %"class.LIEF::DEX::Type", ptr %3, i32 0, i32 2
  store ptr null, ptr %5, align 8
  ret void
}